; Function Attrs: nofree norecurse nosync nounwind memory(argmem: readwrite) uwtable
define internal void @put_vp8_bilinear4_hv_c(ptr noundef writeonly captures(none) %0, i64 noundef %1, ptr noundef readonly captures(none) %2, i64 noundef %3, i32 noundef %4, i32 noundef %5, i32 noundef %6) #1 {
  %8 = alloca [36 x i8], align 16
  %9 = sub nsw i32 8, %5
  %10 = sub nsw i32 8, %6
  call void @llvm.lifetime.start.p0(i64 36, ptr nonnull %8) #5
  %.not44 = icmp slt i32 %4, 0
  br i1 %.not44, label %._crit_edge, label %.preheader42

.preheader42:                                     ; preds = %7, %24
  %.047 = phi ptr [ %25, %24 ], [ %8, %7 ]
  %.03546 = phi i32 [ %27, %24 ], [ 0, %7 ]
  %.04045 = phi ptr [ %26, %24 ], [ %2, %7 ]
  %.pre = load i8, ptr %.04045, align 1, !tbaa !10
  br label %11

.preheader41:                                     ; preds = %24
  %.not = icmp eq i32 %4, 0
  br i1 %.not, label %._crit_edge, label %.preheader

11:                                               ; preds = %.preheader42, %11
  %12 = phi i8 [ %.pre, %.preheader42 ], [ %16, %11 ]
  %indvars.iv = phi i64 [ 0, %.preheader42 ], [ %indvars.iv.next, %11 ]
  %13 = zext i8 %12 to i32
  %14 = mul nsw i32 %9, %13
  %indvars.iv.next = add nuw nsw i64 %indvars.iv, 1
  %15 = getelementptr inbounds nuw i8, ptr %.04045, i64 %indvars.iv.next
  %16 = load i8, ptr %15, align 1, !tbaa !10
  %17 = zext i8 %16 to i32
  %18 = mul nsw i32 %5, %17
  %19 = add i32 %14, 4
  %20 = add i32 %19, %18
  %21 = lshr i32 %20, 3
  %22 = trunc i32 %21 to i8
  %23 = getelementptr inbounds nuw i8, ptr %.047, i64 %indvars.iv
  store i8 %22, ptr %23, align 1, !tbaa !10
  %exitcond.not = icmp eq i64 %indvars.iv.next, 4
  br i1 %exitcond.not, label %24, label %11, !llvm.loop !105

24:                                               ; preds = %11
  %25 = getelementptr inbounds nuw i8, ptr %.047, i64 4
  %26 = getelementptr inbounds i8, ptr %.04045, i64 %3
  %27 = add nuw i32 %.03546, 1
  %exitcond53.not = icmp eq i32 %.03546, %4
  br i1 %exitcond53.not, label %.preheader41, label %.preheader42, !llvm.loop !106

.preheader:                                       ; preds = %.preheader41, %42
  %.151 = phi ptr [ %44, %42 ], [ %8, %.preheader41 ]
  %.13650 = phi i32 [ %45, %42 ], [ 0, %.preheader41 ]
  %.03949 = phi ptr [ %43, %42 ], [ %0, %.preheader41 ]
  br label %28

28:                                               ; preds = %.preheader, %28
  %indvars.iv54 = phi i64 [ 0, %.preheader ], [ %indvars.iv.next55, %28 ]
  %29 = getelementptr inbounds nuw i8, ptr %.151, i64 %indvars.iv54
  %30 = load i8, ptr %29, align 1, !tbaa !10
  %31 = zext i8 %30 to i32
  %32 = mul nsw i32 %10, %31
  %33 = getelementptr inbounds nuw i8, ptr %29, i64 4
  %34 = load i8, ptr %33, align 1, !tbaa !10
  %35 = zext i8 %34 to i32
  %36 = mul nsw i32 %6, %35
  %37 = add i32 %32, 4
  %38 = add i32 %37, %36
  %39 = lshr i32 %38, 3
  %40 = trunc i32 %39 to i8
  %41 = getelementptr inbounds nuw i8, ptr %.03949, i64 %indvars.iv54
  store i8 %40, ptr %41, align 1, !tbaa !10
  %indvars.iv.next55 = add nuw nsw i64 %indvars.iv54, 1
  %exitcond57.not = icmp eq i64 %indvars.iv.next55, 4
  br i1 %exitcond57.not, label %42, label %28, !llvm.loop !107

42:                                               ; preds = %28
  %43 = getelementptr inbounds i8, ptr %.03949, i64 %1
  %44 = getelementptr inbounds nuw i8, ptr %.151, i64 4
  %45 = add nuw nsw i32 %.13650, 1
  %exitcond58.not = icmp eq i32 %45, %4
  br i1 %exitcond58.not, label %._crit_edge, label %.preheader, !llvm.loop !108

._crit_edge:                                      ; preds = %42, %7, %.preheader41
  call void @llvm.lifetime.end.p0(i64 36, ptr nonnull %8) #5
  ret void
}